(dp1
S'files'
p2
(dp3
S'users_services'
p4
(dp5
S'index'
p6
(dp7
S'html_filename'
p8
S'users_services.html'
p9
sS'name'
p10
S'users.services'
p11
sS'nums'
p12
ccopy_reg
_reconstructor
p13
(ccoverage.results
Numbers
p14
c__builtin__
object
p15
NtRp16
(dp17
S'n_files'
p18
I1
sS'n_branches'
p19
I14
sS'n_statements'
p20
I40
sS'n_excluded'
p21
I0
sS'n_partial_branches'
p22
I0
sS'n_missing'
p23
I14
sS'n_missing_branches'
p24
I8
sbssS'hash'
p25
S'=\xd6\xc9\xd4\xe03\x9f\xc1\xc1\xe4)h\x83\x19\xb9='
p26
ssS'books_services'
p27
(dp28
g6
(dp29
g8
S'books_services.html'
p30
sg10
S'books.services'
p31
sg12
g13
(g14
g15
NtRp32
(dp33
g18
I1
sg19
I14
sg20
I66
sg21
I0
sg22
I0
sg23
I47
sg24
I14
sbssg25
S'\xb7O\x1b\xa8\r\xd3\xae\x1d.\x9b\xfeQN\x81U0'
p34
ssS'commons_authentication'
p35
(dp36
g6
(dp37
g8
S'commons_authentication.html'
p38
sg10
S'commons.authentication'
p39
sg12
g13
(g14
g15
NtRp40
(dp41
g18
I1
sg19
I0
sg20
I0
sg21
I0
sg22
I0
sg23
I0
sg24
I0
sbssg25
S'\xbf/\x83L\xc9/\xc0\x9a\xf0p\xa8h\xff\x10T5'
p42
ssS'users_models'
p43
(dp44
g6
(dp45
g8
S'users_models.html'
p46
sg10
S'users.models'
p47
sg12
g13
(g14
g15
NtRp48
(dp49
g18
I1
sg19
I0
sg20
I18
sg21
I0
sg22
I0
sg23
I2
sg24
I0
sbssg25
S'\xf9\xc4\xf8\x9f%\xcb\xd4\xe3\xfb\x1ao<tzx8'
p50
ssS'books'
p51
(dp52
g6
(dp53
g8
S'books.html'
p54
sg10
g51
sg12
g13
(g14
g15
NtRp55
(dp56
g18
I1
sg19
I0
sg20
I0
sg21
I0
sg22
I0
sg23
I0
sg24
I0
sbssg25
S'\xe5P\x11)^\xf4>1D.\x0e\x0b\xa1\xf8[+'
p57
ssS'users_views'
p58
(dp59
g6
(dp60
g8
S'users_views.html'
p61
sg10
S'users.views'
p62
sg12
g13
(g14
g15
NtRp63
(dp64
g18
I1
sg19
I0
sg20
I29
sg21
I0
sg22
I0
sg23
I3
sg24
I0
sbssg25
S'\x02*\xb9W\x1c\xa7h\xdd\x92\xb2@|\xdb\xa9a\x12'
p65
ssS'commons_services'
p66
(dp67
g6
(dp68
g8
S'commons_services.html'
p69
sg10
S'commons.services'
p70
sg12
g13
(g14
g15
NtRp71
(dp72
g18
I1
sg19
I4
sg20
I42
sg21
I0
sg22
I1
sg23
I14
sg24
I1
sbssg25
S'\xcf\xd4D\x98\xbc\xf40B^z\xae\xd4\xb3.\xd0\xaa'
p73
ssS'books_views'
p74
(dp75
g6
(dp76
g8
S'books_views.html'
p77
sg10
S'books.views'
p78
sg12
g13
(g14
g15
NtRp79
(dp80
g18
I1
sg19
I0
sg20
I72
sg21
I0
sg22
I0
sg23
I16
sg24
I0
sbssg25
S'\x84%\xe4qhI\x7f\xe6Ev/\x83\xf0H\xb0a'
p81
ssS'books_models'
p82
(dp83
g6
(dp84
g8
S'books_models.html'
p85
sg10
S'books.models'
p86
sg12
g13
(g14
g15
NtRp87
(dp88
g18
I1
sg19
I0
sg20
I33
sg21
I0
sg22
I0
sg23
I5
sg24
I0
sbssg25
S"N\xd4fe\xa2S'?\xf0\xba\xff\xe9\xe3/\xc3F"
p89
ssS'books_fields'
p90
(dp91
g6
(dp92
g8
S'books_fields.html'
p93
sg10
S'books.fields'
p94
sg12
g13
(g14
g15
NtRp95
(dp96
g18
I1
sg19
I12
sg20
I27
sg21
I0
sg22
I1
sg23
I16
sg24
I11
sbssg25
S'\xec\x17\xae\xbc(6b\x8b\xf7\xd0[m\xaebd\xea'
p97
ssS'commons_views'
p98
(dp99
g6
(dp100
g8
S'commons_views.html'
p101
sg10
S'commons.views'
p102
sg12
g13
(g14
g15
NtRp103
(dp104
g18
I1
sg19
I6
sg20
I26
sg21
I0
sg22
I2
sg23
I2
sg24
I4
sbssg25
S'\xbc =\x00Q\xb3r\x820\xa6\x1bn@\x0b{\\'
p105
ssS'books_filters'
p106
(dp107
g6
(dp108
g8
S'books_filters.html'
p109
sg10
S'books.filters'
p110
sg12
g13
(g14
g15
NtRp111
(dp112
g18
I1
sg19
I0
sg20
I12
sg21
I0
sg22
I0
sg23
I1
sg24
I0
sbssg25
S'\xe7\xf7\xfe4\x9a(\xb0\xd7\xad\xaa\xb3)\xd4}\xb3\xf7'
p113
ssS'commons_filters'
p114
(dp115
g6
(dp116
g8
S'commons_filters.html'
p117
sg10
S'commons.filters'
p118
sg12
g13
(g14
g15
NtRp119
(dp120
g18
I1
sg19
I20
sg20
I55
sg21
I0
sg22
I0
sg23
I33
sg24
I20
sbssg25
S'@\xb4Y\x04\x88\x08\xc1-\x89\x80\xa2\xcf;\x1b\x0b5'
p121
ssS'users'
p122
(dp123
g6
(dp124
g8
S'users.html'
p125
sg10
g122
sg12
g13
(g14
g15
NtRp126
(dp127
g18
I1
sg19
I0
sg20
I0
sg21
I0
sg22
I0
sg23
I0
sg24
I0
sbssg25
S'\xbf/\x83L\xc9/\xc0\x9a\xf0p\xa8h\xff\x10T5'
p128
ssS'books_urls'
p129
(dp130
g6
(dp131
g8
S'books_urls.html'
p132
sg10
S'books.urls'
p133
sg12
g13
(g14
g15
NtRp134
(dp135
g18
I1
sg19
I0
sg20
I3
sg21
I0
sg22
I0
sg23
I0
sg24
I0
sbssg25
S'X:}\x12\x02;\xa4*\xaer\x1dX\n\xcfAn'
p136
ssS'commons_serializers'
p137
(dp138
g6
(dp139
g8
S'commons_serializers.html'
p140
sg10
S'commons.serializers'
p141
sg12
g13
(g14
g15
NtRp142
(dp143
g18
I1
sg19
I17
sg20
I60
sg21
I0
sg22
I1
sg23
I26
sg24
I14
sbssg25
S'\xf2\\\x03\tFn\xd2z\x19/\xc0\x84\xf8\xaa\xf5\xac'
p144
ssS'commons_middleware'
p145
(dp146
g6
(dp147
g8
S'commons_middleware.html'
p148
sg10
S'commons.middleware'
p149
sg12
g13
(g14
g15
NtRp150
(dp151
g18
I1
sg19
I0
sg20
I15
sg21
I0
sg22
I0
sg23
I0
sg24
I0
sbssg25
S'\xe0\x99Z\xceZr\xe8,\xa6\xbcED\xb6\x96\xc8w'
p152
ssS'commons_utils'
p153
(dp154
g6
(dp155
g8
S'commons_utils.html'
p156
sg10
S'commons.utils'
p157
sg12
g13
(g14
g15
NtRp158
(dp159
g18
I1
sg19
I10
sg20
I15
sg21
I0
sg22
I2
sg23
I4
sg24
I4
sbssg25
S'\xc4\xa2{\x18-\xc3\xc9g\xb9\xca\x0c\x8f\xf9\x00\x91\xfe'
p160
ssS'commons_authentication_permissions'
p161
(dp162
g6
(dp163
g8
S'commons_authentication_permissions.html'
p164
sg10
S'commons.authentication.permissions'
p165
sg12
g13
(g14
g15
NtRp166
(dp167
g18
I1
sg19
I4
sg20
I6
sg21
I0
sg22
I0
sg23
I3
sg24
I4
sbssg25
S'\x08\xaf\xb6J\x97\x18\xfcM%\xe1\xff_\t\x85?\x84'
p168
ssS'users_serializers'
p169
(dp170
g6
(dp171
g8
S'users_serializers.html'
p172
sg10
S'users.serializers'
p173
sg12
g13
(g14
g15
NtRp174
(dp175
g18
I1
sg19
I2
sg20
I22
sg21
I0
sg22
I0
sg23
I5
sg24
I2
sbssg25
S'\xa5\x061\xec\xe4\xb0\x16~1\xb6\x88>\x9a!\x9e('
p176
ssS'commons_logger'
p177
(dp178
g6
(dp179
g8
S'commons_logger.html'
p180
sg10
S'commons.logger'
p181
sg12
g13
(g14
g15
NtRp182
(dp183
g18
I1
sg19
I0
sg20
I6
sg21
I0
sg22
I0
sg23
I4
sg24
I0
sbssg25
S'\xcf\xc5\x18S\xa4\xad\xc4\xc8\xb7\xf1\x9fNK\x99K\xf4'
p184
ssS'commons'
p185
(dp186
g6
(dp187
g8
S'commons.html'
p188
sg10
g185
sg12
g13
(g14
g15
NtRp189
(dp190
g18
I1
sg19
I0
sg20
I2
sg21
I0
sg22
I0
sg23
I2
sg24
I0
sbssg25
S']\x8c\x00\r?\xa1\xa1\x16[\x02\x029\x94\xb7\xfc\xd7'
p191
ssS'users_urls'
p192
(dp193
g6
(dp194
g8
S'users_urls.html'
p195
sg10
S'users.urls'
p196
sg12
g13
(g14
g15
NtRp197
(dp198
g18
I1
sg19
I0
sg20
I4
sg21
I0
sg22
I0
sg23
I0
sg24
I0
sbssg25
S'ja\xac\xaa\x1e\xac\x88A\x04\x1cd\x15}ya\xaf'
p199
ssS'books_serializers'
p200
(dp201
g6
(dp202
g8
S'books_serializers.html'
p203
sg10
S'books.serializers'
p204
sg12
g13
(g14
g15
NtRp205
(dp206
g18
I1
sg19
I2
sg20
I34
sg21
I0
sg22
I0
sg23
I9
sg24
I2
sbssg25
S'^\xa8\xa0\xcc\xcd\x7f=A\xe8\x85\x007\x98\xea\xa8\xf3'
p207
ssS'commons_authentication_backends'
p208
(dp209
g6
(dp210
g8
S'commons_authentication_backends.html'
p211
sg10
S'commons.authentication.backends'
p212
sg12
g13
(g14
g15
NtRp213
(dp214
g18
I1
sg19
I10
sg20
I31
sg21
I0
sg22
I2
sg23
I15
sg24
I8
sbssg25
S'e\x11\xde|\x13?\xce\xc89\xa5$\x84\r\xbe\xefE'
p215
ssS'commons_exceptions'
p216
(dp217
g6
(dp218
g8
S'commons_exceptions.html'
p219
sg10
S'commons.exceptions'
p220
sg12
g13
(g14
g15
NtRp221
(dp222
g18
I1
sg19
I0
sg20
I13
sg21
I0
sg22
I0
sg23
I5
sg24
I0
sbssg25
S'\xf6\x11\x8d\xcd\x9d\xccR<\xcf\x7f?\xda\x1c@\x11!'
p223
sssS'version'
p224
S'3.6'
p225
sS'settings'
p226
S']\xfbw\xcb5\xd5l.\x92o=K\x92\x88\x96\xbd'
p227
sS'format'
p228
I1
s.